; Function Attrs: mustprogress nounwind uwtable
define hidden void @_ZN10OopStorage7releaseEPKP7oopDesc(ptr noundef nonnull align 8 dereferenceable(126) %0, ptr noundef %1) local_unnamed_addr #5 align 2 {
  %3 = ptrtoint ptr %1 to i64
  %4 = and i64 %3, -64
  %5 = inttoptr i64 %4 to ptr
  %6 = getelementptr inbounds i8, ptr %5, i64 -448
  %7 = ptrtoint ptr %0 to i64
  br label %8

8:                                                ; preds = %12, %2
  %.01013.i.i = phi i32 [ 0, %2 ], [ %13, %12 ]
  %.01112.i.i = phi ptr [ %6, %2 ], [ %14, %12 ]
  %9 = getelementptr inbounds i8, ptr %.01112.i.i, i64 520
  %10 = tail call noundef i64 @SafeFetchN_impl(ptr noundef nonnull %9, i64 noundef 0) #21
  %11 = icmp eq i64 %10, %7
  br i1 %11, label %_ZNK10OopStorage18find_block_or_nullEPKP7oopDesc.exit, label %12

12:                                               ; preds = %8
  %13 = add nuw nsw i32 %.01013.i.i, 1
  %14 = getelementptr inbounds i8, ptr %.01112.i.i, i64 64
  %exitcond.not.i.i = icmp eq i32 %13, 8
  br i1 %exitcond.not.i.i, label %_ZNK10OopStorage18find_block_or_nullEPKP7oopDesc.exit, label %8, !llvm.loop !11

_ZNK10OopStorage18find_block_or_nullEPKP7oopDesc.exit: ; preds = %8, %12
  %.0.i.i = phi ptr [ %.01112.i.i, %8 ], [ null, %12 ]
  %15 = load volatile ptr, ptr getelementptr inbounds (i8, ptr @_ZN16LogTagSetMappingILN6LogTag4typeE104ELS1_126ELS1_0ELS1_0ELS1_0ELS1_0EE7_tagsetE, i64 48), align 8
  %.not = icmp eq ptr %15, null
  br i1 %.not, label %18, label %16

16:                                               ; preds = %_ZNK10OopStorage18find_block_or_nullEPKP7oopDesc.exit
  %17 = load ptr, ptr %0, align 8
  tail call void (ptr, ...) @_ZN7LogImplILN6LogTag4typeE104ELS1_126ELS1_0ELS1_0ELS1_0ELS1_0EE5writeILN8LogLevel4typeE1EEEvPKcz(ptr noundef nonnull @.str.17, ptr noundef %17, i64 noundef %3)
  br label %18

18:                                               ; preds = %_ZNK10OopStorage18find_block_or_nullEPKP7oopDesc.exit, %16
  %19 = ptrtoint ptr %.0.i.i to i64
  %20 = sub i64 %3, %19
  %21 = lshr exact i64 %20, 3
  %22 = and i64 %21, 4294967295
  %23 = shl nuw i64 1, %22
  tail call void @_ZN10OopStorage5Block15release_entriesEmPS_(ptr noundef nonnull align 8 dereferenceable(576) %.0.i.i, i64 noundef %23, ptr noundef nonnull %0)
  %24 = getelementptr inbounds i8, ptr %0, i64 64
  %25 = tail call noundef i64 asm sideeffect "lock xaddq $0,($2)", "=r,0,r,~{cc},~{memory},~{dirflag},~{fpsr},~{flags}"(i64 -1, ptr nonnull %24) #21, !srcloc !10
  ret void
}